target datalayout = "e-m:e-p270:32:32-p271:32:32-p272:64:64-i64:64-i128:128-f80:128-n8:16:32:64-S128"
target triple = "x86_64-unknown-linux-gnu"

%struct.touch_slot = type { i32, i32, i32 }
%struct._DBusDisplayConsole = type { %struct._GDBusObjectSkeleton, %struct.DisplayChangeListener, ptr, ptr, ptr, ptr, ptr, ptr, ptr, i32, i32, i32, %struct.Notifier }
%struct._GDBusObjectSkeleton = type { %struct._GObject, ptr }
%struct._GObject = type { %struct._GTypeInstance, i32, ptr }
%struct._GTypeInstance = type { ptr }
%struct.DisplayChangeListener = type { i64, ptr, ptr, ptr, %struct.anon }
%struct.anon = type { ptr, ptr }
%struct.Notifier = type { ptr, %struct.anon.0 }
%struct.anon.0 = type { ptr, ptr }
%struct.timeval = type { i64, i64 }

@touch_slots = internal global [10 x %struct.touch_slot] zeroinitializer, align 16
@trace_events_enabled_count = external global i32, align 4
@message_with_timestamp = external global i8, align 1
@qemu_loglevel = external global i32, align 4
@.str.51 = private unnamed_addr constant [25 x i8] c"Invalid touch event kind\00", align 1
@_TRACE_DBUS_TOUCH_SEND_EVENT_DSTATE = external global i16, align 2
@.str.52 = private unnamed_addr constant [69 x i8] c"%d@%zu.%06zu:dbus_touch_send_event kind=%u, num_slot=%u, x=%d, y=%d\0A\00", align 1
@.str.53 = private unnamed_addr constant [56 x i8] c"dbus_touch_send_event kind=%u, num_slot=%u, x=%d, y=%d\0A\00", align 1

; Function Attrs: nounwind sspstrong uwtable
define internal zeroext i1 @qemu_loglevel_mask(i32 noundef %mask) #0 {
entry:
  %mask.addr = alloca i32, align 4
  store i32 %mask, ptr %mask.addr, align 4
  %0 = load i32, ptr @qemu_loglevel, align 4
  %1 = load i32, ptr %mask.addr, align 4
  %and = and i32 %0, %1
  %cmp = icmp ne i32 %and, 0
  ret i1 %cmp
}

; Function Attrs: nounwind sspstrong uwtable
define internal void @_nocheck__trace_dbus_touch_send_event(i32 noundef %kind, i32 noundef %num_slot, i32 noundef %x, i32 noundef %y) #0 {
entry:
  %kind.addr = alloca i32, align 4
  %num_slot.addr = alloca i32, align 4
  %x.addr = alloca i32, align 4
  %y.addr = alloca i32, align 4
  %_now = alloca %struct.timeval, align 8
  store i32 %kind, ptr %kind.addr, align 4
  store i32 %num_slot, ptr %num_slot.addr, align 4
  store i32 %x, ptr %x.addr, align 4
  store i32 %y, ptr %y.addr, align 4
  %0 = load i32, ptr @trace_events_enabled_count, align 4
  %tobool = icmp ne i32 %0, 0
  %lnot = xor i1 %tobool, true
  %lnot1 = xor i1 %lnot, true
  %lnot.ext = zext i1 %lnot1 to i32
  %conv = sext i32 %lnot.ext to i64
  %tobool2 = icmp ne i64 %conv, 0
  br i1 %tobool2, label %land.lhs.true, label %if.end11

land.lhs.true:                                    ; preds = %entry
  %1 = load i16, ptr @_TRACE_DBUS_TOUCH_SEND_EVENT_DSTATE, align 2
  %conv3 = zext i16 %1 to i32
  %tobool4 = icmp ne i32 %conv3, 0
  br i1 %tobool4, label %land.lhs.true5, label %if.end11

land.lhs.true5:                                   ; preds = %land.lhs.true
  %call = call zeroext i1 @qemu_loglevel_mask(i32 noundef 32768)
  br i1 %call, label %if.then, label %if.end11

if.then:                                          ; preds = %land.lhs.true5
  %2 = load i8, ptr @message_with_timestamp, align 1
  %tobool7 = trunc i8 %2 to i1
  br i1 %tobool7, label %if.then8, label %if.else

if.then8:                                         ; preds = %if.then
  %call9 = call i32 @gettimeofday(ptr noundef %_now, ptr noundef null) #9
  %call10 = call i32 @qemu_get_thread_id()
  %tv_sec = getelementptr inbounds %struct.timeval, ptr %_now, i32 0, i32 0
  %3 = load i64, ptr %tv_sec, align 8
  %tv_usec = getelementptr inbounds %struct.timeval, ptr %_now, i32 0, i32 1
  %4 = load i64, ptr %tv_usec, align 8
  %5 = load i32, ptr %kind.addr, align 4
  %6 = load i32, ptr %num_slot.addr, align 4
  %7 = load i32, ptr %x.addr, align 4
  %8 = load i32, ptr %y.addr, align 4
  call void (ptr, ...) @qemu_log(ptr noundef @.str.52, i32 noundef %call10, i64 noundef %3, i64 noundef %4, i32 noundef %5, i32 noundef %6, i32 noundef %7, i32 noundef %8)
  br label %if.end

if.else:                                          ; preds = %if.then
  %9 = load i32, ptr %kind.addr, align 4
  %10 = load i32, ptr %num_slot.addr, align 4
  %11 = load i32, ptr %x.addr, align 4
  %12 = load i32, ptr %y.addr, align 4
  call void (ptr, ...) @qemu_log(ptr noundef @.str.53, i32 noundef %9, i32 noundef %10, i32 noundef %11, i32 noundef %12)
  br label %if.end

if.end:                                           ; preds = %if.else, %if.then8
  br label %if.end11

if.end11:                                         ; preds = %if.end, %land.lhs.true5, %land.lhs.true, %entry
  ret void
}

; Function Attrs: nounwind sspstrong uwtable
define internal void @trace_dbus_touch_send_event(i32 noundef %kind, i32 noundef %num_slot, i32 noundef %x, i32 noundef %y) #0 {
entry:
  %kind.addr = alloca i32, align 4
  %num_slot.addr = alloca i32, align 4
  %x.addr = alloca i32, align 4
  %y.addr = alloca i32, align 4
  store i32 %kind, ptr %kind.addr, align 4
  store i32 %num_slot, ptr %num_slot.addr, align 4
  store i32 %x, ptr %x.addr, align 4
  store i32 %y, ptr %y.addr, align 4
  %0 = load i32, ptr %kind.addr, align 4
  %1 = load i32, ptr %num_slot.addr, align 4
  %2 = load i32, ptr %x.addr, align 4
  %3 = load i32, ptr %y.addr, align 4
  call void @_nocheck__trace_dbus_touch_send_event(i32 noundef %0, i32 noundef %1, i32 noundef %2, i32 noundef %3)
  ret void
}

; Function Attrs: nounwind sspstrong uwtable
define internal i32 @dbus_touch_send_event(ptr noundef %ddc, ptr noundef %invocation, i32 noundef %kind, i64 noundef %num_slot, double noundef %x, double noundef %y) #0 {
entry:
  %retval = alloca i32, align 4
  %ddc.addr = alloca ptr, align 8
  %invocation.addr = alloca ptr, align 8
  %kind.addr = alloca i32, align 4
  %num_slot.addr = alloca i64, align 8
  %x.addr = alloca double, align 8
  %y.addr = alloca double, align 8
  %error = alloca ptr, align 8
  %width = alloca i32, align 4
  %height = alloca i32, align 4
  store ptr %ddc, ptr %ddc.addr, align 8
  store ptr %invocation, ptr %invocation.addr, align 8
  store i32 %kind, ptr %kind.addr, align 4
  store i64 %num_slot, ptr %num_slot.addr, align 8
  store double %x, ptr %x.addr, align 8
  store double %y, ptr %y.addr, align 8
  store ptr null, ptr %error, align 8
  %0 = load i32, ptr %kind.addr, align 4
  %1 = load i64, ptr %num_slot.addr, align 8
  %conv = trunc i64 %1 to i32
  %2 = load double, ptr %x.addr, align 8
  %conv1 = fptoui double %2 to i32
  %3 = load double, ptr %y.addr, align 8
  %conv2 = fptoui double %3 to i32
  call void @trace_dbus_touch_send_event(i32 noundef %0, i32 noundef %conv, i32 noundef %conv1, i32 noundef %conv2)
  %4 = load i32, ptr %kind.addr, align 4
  %cmp = icmp ne i32 %4, 0
  br i1 %cmp, label %land.lhs.true, label %if.end

land.lhs.true:                                    ; preds = %entry
  %5 = load i32, ptr %kind.addr, align 4
  %cmp4 = icmp ne i32 %5, 1
  br i1 %cmp4, label %land.lhs.true6, label %if.end

land.lhs.true6:                                   ; preds = %land.lhs.true
  %6 = load i32, ptr %kind.addr, align 4
  %cmp7 = icmp ne i32 %6, 3
  br i1 %cmp7, label %land.lhs.true9, label %if.end

land.lhs.true9:                                   ; preds = %land.lhs.true6
  %7 = load i32, ptr %kind.addr, align 4
  %cmp10 = icmp ne i32 %7, 2
  br i1 %cmp10, label %if.then, label %if.end

if.then:                                          ; preds = %land.lhs.true9
  %8 = load ptr, ptr %invocation.addr, align 8
  %call = call i32 @dbus_display_error_quark()
  call void (ptr, i32, i32, ptr, ...) @g_dbus_method_invocation_return_error(ptr noundef %8, i32 noundef %call, i32 noundef 1, ptr noundef @.str.51)
  store i32 1, ptr %retval, align 4
  br label %return

if.end:                                           ; preds = %land.lhs.true9, %land.lhs.true6, %land.lhs.true, %entry
  %9 = load ptr, ptr %ddc.addr, align 8
  %dcl = getelementptr inbounds %struct._DBusDisplayConsole, ptr %9, i32 0, i32 1
  %con = getelementptr inbounds %struct.DisplayChangeListener, ptr %dcl, i32 0, i32 3
  %10 = load ptr, ptr %con, align 8
  %call12 = call i32 @qemu_console_get_width(ptr noundef %10, i32 noundef 0)
  store i32 %call12, ptr %width, align 4
  %11 = load ptr, ptr %ddc.addr, align 8
  %dcl13 = getelementptr inbounds %struct._DBusDisplayConsole, ptr %11, i32 0, i32 1
  %con14 = getelementptr inbounds %struct.DisplayChangeListener, ptr %dcl13, i32 0, i32 3
  %12 = load ptr, ptr %con14, align 8
  %call15 = call i32 @qemu_console_get_height(ptr noundef %12, i32 noundef 0)
  store i32 %call15, ptr %height, align 4
  %13 = load ptr, ptr %ddc.addr, align 8
  %dcl16 = getelementptr inbounds %struct._DBusDisplayConsole, ptr %13, i32 0, i32 1
  %con17 = getelementptr inbounds %struct.DisplayChangeListener, ptr %dcl16, i32 0, i32 3
  %14 = load ptr, ptr %con17, align 8
  %15 = load i64, ptr %num_slot.addr, align 8
  %16 = load i32, ptr %width, align 4
  %17 = load i32, ptr %height, align 4
  %18 = load double, ptr %x.addr, align 8
  %19 = load double, ptr %y.addr, align 8
  %20 = load i32, ptr %kind.addr, align 4
  call void @console_handle_touch_event(ptr noundef %14, ptr noundef @touch_slots, i64 noundef %15, i32 noundef %16, i32 noundef %17, double noundef %18, double noundef %19, i32 noundef %20, ptr noundef %error)
  %21 = load ptr, ptr %error, align 8
  %cmp18 = icmp ne ptr %21, null
  br i1 %cmp18, label %if.then20, label %if.else

if.then20:                                        ; preds = %if.end
  %22 = load ptr, ptr %invocation.addr, align 8
  %call21 = call i32 @dbus_display_error_quark()
  %23 = load ptr, ptr %error, align 8
  %call22 = call ptr @error_get_pretty(ptr noundef %23)
  call void (ptr, i32, i32, ptr, ...) @g_dbus_method_invocation_return_error(ptr noundef %22, i32 noundef %call21, i32 noundef 1, ptr noundef %call22, ptr noundef null)
  %24 = load ptr, ptr %error, align 8
  call void @error_free(ptr noundef %24)
  br label %if.end23

if.else:                                          ; preds = %if.end
  %25 = load ptr, ptr %ddc.addr, align 8
  %iface_touch = getelementptr inbounds %struct._DBusDisplayConsole, ptr %25, i32 0, i32 8
  %26 = load ptr, ptr %iface_touch, align 8
  %27 = load ptr, ptr %invocation.addr, align 8
  call void @qemu_dbus_display1_multi_touch_complete_send_event(ptr noundef %26, ptr noundef %27)
  br label %if.end23

if.end23:                                         ; preds = %if.else, %if.then20
  store i32 1, ptr %retval, align 4
  br label %return

return:                                           ; preds = %if.end23, %if.then
  %28 = load i32, ptr %retval, align 4
  ret i32 %28
}