; Function Attrs: nounwind sspstrong uwtable
define internal noundef i32 @dbus_touch_send_event(ptr noundef readonly captures(none) %ddc, ptr noundef %invocation, i32 noundef %kind, i64 noundef %num_slot, double noundef %x, double noundef %y) #0 {
entry:
  %_now.i.i = alloca %struct.timeval, align 8
  %error = alloca ptr, align 8
  store ptr null, ptr %error, align 8
  %conv = trunc i64 %num_slot to i32
  %conv1 = fptoui double %x to i32
  %conv2 = fptoui double %y to i32
  call void @llvm.lifetime.start.p0(i64 16, ptr nonnull %_now.i.i)
  %0 = load i32, ptr @trace_events_enabled_count, align 4
  %tobool.i.i = icmp ne i32 %0, 0
  %1 = load i16, ptr @_TRACE_DBUS_TOUCH_SEND_EVENT_DSTATE, align 2
  %tobool4.i.i = icmp ne i16 %1, 0
  %or.cond.i.i = select i1 %tobool.i.i, i1 %tobool4.i.i, i1 false
  br i1 %or.cond.i.i, label %land.lhs.true5.i.i, label %trace_dbus_touch_send_event.exit

land.lhs.true5.i.i:                               ; preds = %entry
  %2 = load i32, ptr @qemu_loglevel, align 4
  %and.i.i.i = and i32 %2, 32768
  %cmp.i.not.i.i = icmp eq i32 %and.i.i.i, 0
  br i1 %cmp.i.not.i.i, label %trace_dbus_touch_send_event.exit, label %if.then.i.i

if.then.i.i:                                      ; preds = %land.lhs.true5.i.i
  %3 = load i8, ptr @message_with_timestamp, align 1
  %tobool7.i.i = trunc i8 %3 to i1
  br i1 %tobool7.i.i, label %if.then8.i.i, label %if.else.i.i

if.then8.i.i:                                     ; preds = %if.then.i.i
  %call9.i.i = call i32 @gettimeofday(ptr noundef nonnull %_now.i.i, ptr noundef null) #9
  %call10.i.i = tail call i32 @qemu_get_thread_id() #9
  %4 = load i64, ptr %_now.i.i, align 8
  %tv_usec.i.i = getelementptr inbounds nuw i8, ptr %_now.i.i, i64 8
  %5 = load i64, ptr %tv_usec.i.i, align 8
  tail call void (ptr, ...) @qemu_log(ptr noundef nonnull @.str.52, i32 noundef %call10.i.i, i64 noundef %4, i64 noundef %5, i32 noundef %kind, i32 noundef %conv, i32 noundef %conv1, i32 noundef %conv2) #9
  br label %trace_dbus_touch_send_event.exit

if.else.i.i:                                      ; preds = %if.then.i.i
  tail call void (ptr, ...) @qemu_log(ptr noundef nonnull @.str.53, i32 noundef %kind, i32 noundef %conv, i32 noundef %conv1, i32 noundef %conv2) #9
  br label %trace_dbus_touch_send_event.exit

trace_dbus_touch_send_event.exit:                 ; preds = %entry, %land.lhs.true5.i.i, %if.then8.i.i, %if.else.i.i
  call void @llvm.lifetime.end.p0(i64 16, ptr nonnull %_now.i.i)
  %or.cond2 = icmp ugt i32 %kind, 3
  br i1 %or.cond2, label %if.then, label %if.end

if.then:                                          ; preds = %trace_dbus_touch_send_event.exit
  %call = tail call i32 @dbus_display_error_quark() #9
  tail call void (ptr, i32, i32, ptr, ...) @g_dbus_method_invocation_return_error(ptr noundef %invocation, i32 noundef %call, i32 noundef 1, ptr noundef nonnull @.str.51) #9
  br label %return

if.end:                                           ; preds = %trace_dbus_touch_send_event.exit
  %con = getelementptr inbounds nuw i8, ptr %ddc, i64 56
  %6 = load ptr, ptr %con, align 8
  %call12 = tail call i32 @qemu_console_get_width(ptr noundef %6, i32 noundef 0) #9
  %7 = load ptr, ptr %con, align 8
  %call15 = tail call i32 @qemu_console_get_height(ptr noundef %7, i32 noundef 0) #9
  %8 = load ptr, ptr %con, align 8
  call void @console_handle_touch_event(ptr noundef %8, ptr noundef nonnull @touch_slots, i64 noundef %num_slot, i32 noundef %call12, i32 noundef %call15, double noundef %x, double noundef %y, i32 noundef %kind, ptr noundef nonnull %error) #9
  %9 = load ptr, ptr %error, align 8
  %cmp18.not = icmp eq ptr %9, null
  br i1 %cmp18.not, label %if.else, label %if.then20

if.then20:                                        ; preds = %if.end
  %call21 = call i32 @dbus_display_error_quark() #9
  %10 = load ptr, ptr %error, align 8
  %call22 = call ptr @error_get_pretty(ptr noundef %10) #9
  call void (ptr, i32, i32, ptr, ...) @g_dbus_method_invocation_return_error(ptr noundef %invocation, i32 noundef %call21, i32 noundef 1, ptr noundef %call22, ptr noundef null) #9
  %11 = load ptr, ptr %error, align 8
  call void @error_free(ptr noundef %11) #9
  br label %return

if.else:                                          ; preds = %if.end
  %iface_touch = getelementptr inbounds nuw i8, ptr %ddc, i64 128
  %12 = load ptr, ptr %iface_touch, align 8
  call void @qemu_dbus_display1_multi_touch_complete_send_event(ptr noundef %12, ptr noundef %invocation) #9
  br label %return

return:                                           ; preds = %if.then20, %if.else, %if.then
  ret i32 1
}